; Function Attrs: mustprogress nounwind uwtable
define dso_local void @_ZN4llvm18DecodeVPERMILPMaskEjjNS_8ArrayRefImEERKNS_5APIntERNS_15SmallVectorImplIiEE(i32 noundef %0, i32 noundef %1, ptr readonly captures(none) %2, i64 %3, ptr noundef nonnull readonly align 8 captures(none) dereferenceable(12) %4, ptr noundef nonnull align 8 dereferenceable(16) %5) local_unnamed_addr #0 {
  %7 = and i64 %3, 4294967295
  %.not22 = icmp eq i64 %7, 0
  br i1 %.not22, label %._crit_edge, label %.lr.ph

.lr.ph:                                           ; preds = %6
  %8 = mul i32 %1, %0
  %9 = lshr i32 %8, 7
  %10 = udiv i32 %0, %9
  %11 = getelementptr inbounds nuw i8, ptr %4, i64 8
  %12 = getelementptr inbounds nuw i8, ptr %5, i64 16
  %13 = icmp eq i32 %1, 64
  %14 = sub i32 0, %10
  %wide.trip.count = and i64 %3, 4294967295
  br label %15

15:                                               ; preds = %.lr.ph, %_ZN4llvm23SmallVectorTemplateBaseIiLb1EE9push_backEi.exit
  %indvars.iv = phi i64 [ 0, %.lr.ph ], [ %indvars.iv.next, %_ZN4llvm23SmallVectorTemplateBaseIiLb1EE9push_backEi.exit ]
  %16 = and i64 %indvars.iv, 63
  %17 = shl nuw i64 1, %16
  %18 = load i32, ptr %11, align 8
  %19 = icmp ult i32 %18, 65
  %20 = load ptr, ptr %4, align 8
  %21 = lshr i64 %indvars.iv, 6
  %22 = and i64 %21, 67108863
  %23 = getelementptr inbounds nuw i64, ptr %20, i64 %22
  %.in.i.i = select i1 %19, ptr %4, ptr %23
  %24 = load i64, ptr %.in.i.i, align 8
  %25 = and i64 %24, %17
  %.not = icmp eq i64 %25, 0
  br i1 %.not, label %30, label %26

26:                                               ; preds = %15
  %27 = tail call noundef i64 @_ZNK4llvm15SmallVectorBaseIjE4sizeEv(ptr noundef nonnull align 8 dereferenceable(16) %5) #4
  %28 = add i64 %27, 1
  %29 = tail call noundef i64 @_ZNK4llvm15SmallVectorBaseIjE8capacityEv(ptr noundef nonnull align 8 dereferenceable(16) %5) #4
  %.not.i.i.i = icmp ugt i64 %28, %29
  br i1 %.not.i.i.i, label %_ZN4llvm23SmallVectorTemplateBaseIiLb1EE9push_backEi.exit.sink.split, label %_ZN4llvm23SmallVectorTemplateBaseIiLb1EE9push_backEi.exit

30:                                               ; preds = %15
  %31 = trunc nuw i64 %indvars.iv to i32
  %32 = getelementptr inbounds nuw i64, ptr %2, i64 %indvars.iv
  %33 = load i64, ptr %32, align 8
  %34 = lshr i64 %33, 1
  %35 = and i64 %34, 1
  %36 = and i64 %33, 3
  %37 = select i1 %13, i64 %35, i64 %36
  %38 = and i32 %31, %14
  %39 = trunc nuw nsw i64 %37 to i32
  %40 = add i32 %38, %39
  %41 = tail call noundef i64 @_ZNK4llvm15SmallVectorBaseIjE4sizeEv(ptr noundef nonnull align 8 dereferenceable(16) %5) #4
  %42 = add i64 %41, 1
  %43 = tail call noundef i64 @_ZNK4llvm15SmallVectorBaseIjE8capacityEv(ptr noundef nonnull align 8 dereferenceable(16) %5) #4
  %.not.i.i.i19 = icmp ugt i64 %42, %43
  br i1 %.not.i.i.i19, label %_ZN4llvm23SmallVectorTemplateBaseIiLb1EE9push_backEi.exit.sink.split, label %_ZN4llvm23SmallVectorTemplateBaseIiLb1EE9push_backEi.exit

_ZN4llvm23SmallVectorTemplateBaseIiLb1EE9push_backEi.exit.sink.split: ; preds = %30, %26
  %.sink28 = phi i64 [ %28, %26 ], [ %42, %30 ]
  %.sink.ph = phi i32 [ -1, %26 ], [ %40, %30 ]
  tail call void @_ZN4llvm15SmallVectorBaseIjE8grow_podEPvmm(ptr noundef nonnull align 8 dereferenceable(16) %5, ptr noundef nonnull %12, i64 noundef %.sink28, i64 noundef 4) #4
  br label %_ZN4llvm23SmallVectorTemplateBaseIiLb1EE9push_backEi.exit

_ZN4llvm23SmallVectorTemplateBaseIiLb1EE9push_backEi.exit: ; preds = %_ZN4llvm23SmallVectorTemplateBaseIiLb1EE9push_backEi.exit.sink.split, %30, %26
  %.sink = phi i32 [ -1, %26 ], [ %40, %30 ], [ %.sink.ph, %_ZN4llvm23SmallVectorTemplateBaseIiLb1EE9push_backEi.exit.sink.split ]
  %44 = load ptr, ptr %5, align 8
  %45 = tail call noundef i64 @_ZNK4llvm15SmallVectorBaseIjE4sizeEv(ptr noundef nonnull align 8 dereferenceable(16) %5) #4
  %46 = getelementptr inbounds i32, ptr %44, i64 %45
  store i32 %.sink, ptr %46, align 1
  %47 = tail call noundef i64 @_ZNK4llvm15SmallVectorBaseIjE4sizeEv(ptr noundef nonnull align 8 dereferenceable(16) %5) #4
  %48 = add i64 %47, 1
  tail call void @_ZN4llvm15SmallVectorBaseIjE8set_sizeEm(ptr noundef nonnull align 8 dereferenceable(16) %5, i64 noundef %48) #4
  %indvars.iv.next = add nuw nsw i64 %indvars.iv, 1
  %exitcond.not = icmp eq i64 %indvars.iv.next, %wide.trip.count
  br i1 %exitcond.not, label %._crit_edge, label %15, !llvm.loop !60

._crit_edge:                                      ; preds = %_ZN4llvm23SmallVectorTemplateBaseIiLb1EE9push_backEi.exit, %6
  ret void
}